target datalayout = "e-m:e-p270:32:32-p271:32:32-p272:64:64-i64:64-i128:128-f80:128-n8:16:32:64-S128"
target triple = "x86_64-unknown-linux-gnu"

%"class.zmq::zmtp_engine_t" = type <{ %"class.zmq::stream_engine_base_t.base", [7 x i8], %"class.zmq::msg_t", %"class.zmq::msg_t", i64, [64 x i8], [64 x i8], i32, i8, [3 x i8], i32, [4 x i8] }>
%"class.zmq::stream_engine_base_t.base" = type <{ %"class.zmq::io_object_t", %"struct.zmq::i_engine", %"struct.zmq::options_t", ptr, i64, ptr, ptr, i64, ptr, ptr, { i64, i64 }, { i64, i64 }, ptr, i8, i8, [6 x i8], %"struct.zmq::endpoint_uri_pair_t", i8, i8, i8, i8, [4 x i8], %"class.std::__cxx11::basic_string", i32, [4 x i8], ptr, i8, i8, [6 x i8], %"class.zmq::msg_t", i8, [7 x i8], ptr, ptr, i8 }>
%"class.zmq::io_object_t" = type { %"struct.zmq::i_poll_events", ptr }
%"struct.zmq::i_poll_events" = type { ptr }
%"struct.zmq::i_engine" = type { ptr }
%"struct.zmq::options_t" = type { i32, i32, i64, i8, [256 x i8], i32, i32, i32, i32, i32, i32, i32, i32, i8, %"struct.zmq::atomic_value_t", i32, i32, i32, i32, i32, i32, i64, i32, i32, i8, i32, i8, i8, i8, i8, i8, %"class.std::__cxx11::basic_string", %"class.std::__cxx11::basic_string", %"class.std::__cxx11::basic_string", i32, i32, i32, i32, %"class.std::vector", %"class.std::set", %"class.std::set", %"class.std::set.6", i32, i32, %"class.std::__cxx11::basic_string", %"class.std::__cxx11::basic_string", %"class.std::__cxx11::basic_string", [32 x i8], [32 x i8], [32 x i8], %"class.std::__cxx11::basic_string", %"class.std::__cxx11::basic_string", i32, i32, i8, i32, i8, i32, i8, i16, i32, i32, i32, %"class.std::__cxx11::basic_string", i8, i8, i8, i32, i32, i8, i32, %"class.std::map", i32, %"class.std::__cxx11::basic_string", %"class.std::__cxx11::basic_string", %"class.std::__cxx11::basic_string", %"class.std::__cxx11::basic_string", i8, %"class.std::vector.21", i8, %"class.std::vector.21", i8, %"class.std::vector.21", i8, i32, i8, i32, i32, i32, i32, i32, i8, i32 }
%"struct.zmq::atomic_value_t" = type { %"struct.std::atomic" }
%"struct.std::atomic" = type { %"struct.std::__atomic_base" }
%"struct.std::__atomic_base" = type { i32 }
%"class.std::vector" = type { %"struct.std::_Vector_base" }
%"struct.std::_Vector_base" = type { %"struct.std::_Vector_base<zmq::tcp_address_mask_t, std::allocator<zmq::tcp_address_mask_t>>::_Vector_impl" }
%"struct.std::_Vector_base<zmq::tcp_address_mask_t, std::allocator<zmq::tcp_address_mask_t>>::_Vector_impl" = type { %"struct.std::_Vector_base<zmq::tcp_address_mask_t, std::allocator<zmq::tcp_address_mask_t>>::_Vector_impl_data" }
%"struct.std::_Vector_base<zmq::tcp_address_mask_t, std::allocator<zmq::tcp_address_mask_t>>::_Vector_impl_data" = type { ptr, ptr, ptr }
%"class.std::set" = type { %"class.std::_Rb_tree" }
%"class.std::_Rb_tree" = type { %"struct.std::_Rb_tree<unsigned int, unsigned int, std::_Identity<unsigned int>, std::less<unsigned int>>::_Rb_tree_impl" }
%"struct.std::_Rb_tree<unsigned int, unsigned int, std::_Identity<unsigned int>, std::less<unsigned int>>::_Rb_tree_impl" = type { %"struct.std::_Rb_tree_key_compare", %"struct.std::_Rb_tree_header" }
%"struct.std::_Rb_tree_key_compare" = type { %"struct.std::less" }
%"struct.std::less" = type { i8 }
%"struct.std::_Rb_tree_header" = type { %"struct.std::_Rb_tree_node_base", i64 }
%"struct.std::_Rb_tree_node_base" = type { i32, ptr, ptr, ptr }
%"class.std::set.6" = type { %"class.std::_Rb_tree.7" }
%"class.std::_Rb_tree.7" = type { %"struct.std::_Rb_tree<int, int, std::_Identity<int>, std::less<int>>::_Rb_tree_impl" }
%"struct.std::_Rb_tree<int, int, std::_Identity<int>, std::less<int>>::_Rb_tree_impl" = type { %"struct.std::_Rb_tree_key_compare.11", %"struct.std::_Rb_tree_header" }
%"struct.std::_Rb_tree_key_compare.11" = type { %"struct.std::less.12" }
%"struct.std::less.12" = type { i8 }
%"class.std::map" = type { %"class.std::_Rb_tree.14" }
%"class.std::_Rb_tree.14" = type { %"struct.std::_Rb_tree<std::__cxx11::basic_string<char>, std::pair<const std::__cxx11::basic_string<char>, std::__cxx11::basic_string<char>>, std::_Select1st<std::pair<const std::__cxx11::basic_string<char>, std::__cxx11::basic_string<char>>>, std::less<std::__cxx11::basic_string<char>>>::_Rb_tree_impl" }
%"struct.std::_Rb_tree<std::__cxx11::basic_string<char>, std::pair<const std::__cxx11::basic_string<char>, std::__cxx11::basic_string<char>>, std::_Select1st<std::pair<const std::__cxx11::basic_string<char>, std::__cxx11::basic_string<char>>>, std::less<std::__cxx11::basic_string<char>>>::_Rb_tree_impl" = type { %"struct.std::_Rb_tree_key_compare.18", %"struct.std::_Rb_tree_header" }
%"struct.std::_Rb_tree_key_compare.18" = type { %"struct.std::less.19" }
%"struct.std::less.19" = type { i8 }
%"class.std::vector.21" = type { %"struct.std::_Vector_base.22" }
%"struct.std::_Vector_base.22" = type { %"struct.std::_Vector_base<unsigned char, std::allocator<unsigned char>>::_Vector_impl" }
%"struct.std::_Vector_base<unsigned char, std::allocator<unsigned char>>::_Vector_impl" = type { %"struct.std::_Vector_base<unsigned char, std::allocator<unsigned char>>::_Vector_impl_data" }
%"struct.std::_Vector_base<unsigned char, std::allocator<unsigned char>>::_Vector_impl_data" = type { ptr, ptr, ptr }
%"struct.zmq::endpoint_uri_pair_t" = type <{ %"class.std::__cxx11::basic_string", %"class.std::__cxx11::basic_string", i32, [4 x i8] }>
%"class.std::__cxx11::basic_string" = type { %"struct.std::__cxx11::basic_string<char>::_Alloc_hider", i64, %union.anon }
%"struct.std::__cxx11::basic_string<char>::_Alloc_hider" = type { ptr }
%union.anon = type { i64, [8 x i8] }
%"class.zmq::msg_t" = type { %union.anon.26 }
%union.anon.26 = type { %struct.anon }
%struct.anon = type { ptr, [34 x i8], i8, i8, i32, %"union.zmq::msg_t::group_t" }
%"union.zmq::msg_t::group_t" = type { %struct.anon.28 }
%struct.anon.28 = type { i8, ptr }
%"class.zmq::stream_engine_base_t" = type <{ %"class.zmq::io_object_t", %"struct.zmq::i_engine", %"struct.zmq::options_t", ptr, i64, ptr, ptr, i64, ptr, ptr, { i64, i64 }, { i64, i64 }, ptr, i8, i8, [6 x i8], %"struct.zmq::endpoint_uri_pair_t", i8, i8, i8, i8, [4 x i8], %"class.std::__cxx11::basic_string", i32, [4 x i8], ptr, i8, i8, [6 x i8], %"class.zmq::msg_t", i8, [7 x i8], ptr, ptr, i8, [7 x i8] }>

@stderr = external global ptr, align 8
@.str = private unnamed_addr constant [12 x i8] c"%s (%s:%d)\0A\00", align 1
@.str.1 = private unnamed_addr constant [111 x i8] c"generated/home/dtcxzyw/WorkSpace/Projects/compilers/llvm-opt-benchmark/bench/libzmq/libzmq/src/zmtp_engine.cpp\00", align 1

; Function Attrs: mustprogress uwtable
define void @_ZN3zmq13zmtp_engine_tC2EiRKNS_9options_tERKNS_19endpoint_uri_pair_tE(ptr noundef nonnull align 8 dereferenceable(1976) %this, i32 noundef %fd_, ptr noundef nonnull align 8 dereferenceable(1336) %options_, ptr noundef nonnull align 8 dereferenceable(68) %endpoint_uri_pair_) unnamed_addr #0 align 2 personality ptr @__gxx_personality_v0 {
entry:
  %this.addr = alloca ptr, align 8
  %fd_.addr = alloca i32, align 4
  %options_.addr = alloca ptr, align 8
  %endpoint_uri_pair_.addr = alloca ptr, align 8
  %rc = alloca i32, align 4
  %exn.slot = alloca ptr, align 8
  %ehselector.slot = alloca i32, align 4
  %errstr = alloca ptr, align 8
  %errstr17 = alloca ptr, align 8
  store ptr %this, ptr %this.addr, align 8
  store i32 %fd_, ptr %fd_.addr, align 4
  store ptr %options_, ptr %options_.addr, align 8
  store ptr %endpoint_uri_pair_, ptr %endpoint_uri_pair_.addr, align 8
  %this1 = load ptr, ptr %this.addr, align 8
  %0 = load i32, ptr %fd_.addr, align 4
  %1 = load ptr, ptr %options_.addr, align 8
  %2 = load ptr, ptr %endpoint_uri_pair_.addr, align 8
  call void @_ZN3zmq20stream_engine_base_tC2EiRKNS_9options_tERKNS_19endpoint_uri_pair_tEb(ptr noundef nonnull align 8 dereferenceable(1689) %this1, i32 noundef %0, ptr noundef nonnull align 8 dereferenceable(1336) %1, ptr noundef nonnull align 8 dereferenceable(68) %2, i1 noundef zeroext true)
  store ptr getelementptr inbounds ({ [24 x ptr], [11 x ptr] }, ptr @_ZTVN3zmq13zmtp_engine_tE, i32 0, i32 0, i32 2), ptr %this1, align 8
  %add.ptr = getelementptr inbounds i8, ptr %this1, i64 16
  store ptr getelementptr inbounds ({ [24 x ptr], [11 x ptr] }, ptr @_ZTVN3zmq13zmtp_engine_tE, i32 0, i32 1, i32 2), ptr %add.ptr, align 8
  %_greeting_size = getelementptr inbounds %"class.zmq::zmtp_engine_t", ptr %this1, i32 0, i32 4
  store i64 12, ptr %_greeting_size, align 8
  %_greeting_bytes_read = getelementptr inbounds %"class.zmq::zmtp_engine_t", ptr %this1, i32 0, i32 7
  store i32 0, ptr %_greeting_bytes_read, align 8
  %_subscription_required = getelementptr inbounds %"class.zmq::zmtp_engine_t", ptr %this1, i32 0, i32 8
  store i8 0, ptr %_subscription_required, align 4
  %_heartbeat_timeout = getelementptr inbounds %"class.zmq::zmtp_engine_t", ptr %this1, i32 0, i32 10
  store i32 0, ptr %_heartbeat_timeout, align 8
  %_next_msg = getelementptr inbounds %"class.zmq::stream_engine_base_t", ptr %this1, i32 0, i32 10
  store { i64, i64 } { i64 ptrtoint (ptr @_ZN3zmq13zmtp_engine_t14routing_id_msgEPNS_5msg_tE to i64), i64 0 }, ptr %_next_msg, align 8
  %_process_msg = getelementptr inbounds %"class.zmq::stream_engine_base_t", ptr %this1, i32 0, i32 11
  store { i64, i64 } { i64 ptrtoint (ptr @_ZN3zmq13zmtp_engine_t22process_routing_id_msgEPNS_5msg_tE to i64), i64 0 }, ptr %_process_msg, align 8
  %_pong_msg2 = getelementptr inbounds %"class.zmq::zmtp_engine_t", ptr %this1, i32 0, i32 3
  %call = invoke noundef i32 @_ZN3zmq5msg_t4initEv(ptr noundef nonnull align 8 dereferenceable(64) %_pong_msg2)
          to label %invoke.cont unwind label %lpad

invoke.cont:                                      ; preds = %entry
  store i32 %call, ptr %rc, align 4
  br label %do.body

do.body:                                          ; preds = %invoke.cont
  %3 = load i32, ptr %rc, align 4
  %cmp = icmp eq i32 %3, 0
  %lnot = xor i1 %cmp, true
  br i1 %lnot, label %if.then, label %if.end

if.then:                                          ; preds = %do.body
  %call3 = call ptr @__errno_location() #13
  %4 = load i32, ptr %call3, align 4
  %call4 = call ptr @strerror(i32 noundef %4) #14
  store ptr %call4, ptr %errstr, align 8
  %5 = load ptr, ptr @stderr, align 8
  %6 = load ptr, ptr %errstr, align 8
  %call6 = invoke i32 (ptr, ptr, ...) @fprintf(ptr noundef %5, ptr noundef @.str, ptr noundef %6, ptr noundef @.str.1, i32 noundef 55)
          to label %invoke.cont5 unwind label %lpad

invoke.cont5:                                     ; preds = %if.then
  %7 = load ptr, ptr @stderr, align 8
  %call8 = invoke i32 @fflush(ptr noundef %7)
          to label %invoke.cont7 unwind label %lpad

invoke.cont7:                                     ; preds = %invoke.cont5
  %8 = load ptr, ptr %errstr, align 8
  invoke void @_ZN3zmq9zmq_abortEPKc(ptr noundef %8)
          to label %invoke.cont9 unwind label %lpad

invoke.cont9:                                     ; preds = %invoke.cont7
  br label %if.end

lpad:                                             ; preds = %invoke.cont22, %invoke.cont20, %if.then16, %do.end, %invoke.cont7, %invoke.cont5, %if.then, %entry
  %9 = landingpad { ptr, i32 }
          cleanup
  %10 = extractvalue { ptr, i32 } %9, 0
  store ptr %10, ptr %exn.slot, align 8
  %11 = extractvalue { ptr, i32 } %9, 1
  store i32 %11, ptr %ehselector.slot, align 4
  call void @_ZN3zmq20stream_engine_base_tD2Ev(ptr noundef nonnull align 8 dereferenceable(1689) %this1) #14
  br label %eh.resume

if.end:                                           ; preds = %invoke.cont9, %do.body
  br label %do.cond

do.cond:                                          ; preds = %if.end
  br label %do.end

do.end:                                           ; preds = %do.cond
  %_routing_id_msg10 = getelementptr inbounds %"class.zmq::zmtp_engine_t", ptr %this1, i32 0, i32 2
  %call12 = invoke noundef i32 @_ZN3zmq5msg_t4initEv(ptr noundef nonnull align 8 dereferenceable(64) %_routing_id_msg10)
          to label %invoke.cont11 unwind label %lpad

invoke.cont11:                                    ; preds = %do.end
  store i32 %call12, ptr %rc, align 4
  br label %do.body13

do.body13:                                        ; preds = %invoke.cont11
  %12 = load i32, ptr %rc, align 4
  %cmp14 = icmp eq i32 %12, 0
  %lnot15 = xor i1 %cmp14, true
  br i1 %lnot15, label %if.then16, label %if.end25

if.then16:                                        ; preds = %do.body13
  %call18 = call ptr @__errno_location() #13
  %13 = load i32, ptr %call18, align 4
  %call19 = call ptr @strerror(i32 noundef %13) #14
  store ptr %call19, ptr %errstr17, align 8
  %14 = load ptr, ptr @stderr, align 8
  %15 = load ptr, ptr %errstr17, align 8
  %call21 = invoke i32 (ptr, ptr, ...) @fprintf(ptr noundef %14, ptr noundef @.str, ptr noundef %15, ptr noundef @.str.1, i32 noundef 58)
          to label %invoke.cont20 unwind label %lpad

invoke.cont20:                                    ; preds = %if.then16
  %16 = load ptr, ptr @stderr, align 8
  %call23 = invoke i32 @fflush(ptr noundef %16)
          to label %invoke.cont22 unwind label %lpad

invoke.cont22:                                    ; preds = %invoke.cont20
  %17 = load ptr, ptr %errstr17, align 8
  invoke void @_ZN3zmq9zmq_abortEPKc(ptr noundef %17)
          to label %invoke.cont24 unwind label %lpad

invoke.cont24:                                    ; preds = %invoke.cont22
  br label %if.end25

if.end25:                                         ; preds = %invoke.cont24, %do.body13
  br label %do.cond26

do.cond26:                                        ; preds = %if.end25
  br label %do.end27

do.end27:                                         ; preds = %do.cond26
  %_options = getelementptr inbounds %"class.zmq::stream_engine_base_t", ptr %this1, i32 0, i32 2
  %heartbeat_interval = getelementptr inbounds %"struct.zmq::options_t", ptr %_options, i32 0, i32 60
  %18 = load i32, ptr %heartbeat_interval, align 4
  %cmp28 = icmp sgt i32 %18, 0
  br i1 %cmp28, label %if.then29, label %if.end39

if.then29:                                        ; preds = %do.end27
  %_options30 = getelementptr inbounds %"class.zmq::stream_engine_base_t", ptr %this1, i32 0, i32 2
  %heartbeat_timeout = getelementptr inbounds %"struct.zmq::options_t", ptr %_options30, i32 0, i32 61
  %19 = load i32, ptr %heartbeat_timeout, align 8
  %_heartbeat_timeout31 = getelementptr inbounds %"class.zmq::zmtp_engine_t", ptr %this1, i32 0, i32 10
  store i32 %19, ptr %_heartbeat_timeout31, align 8
  %_heartbeat_timeout32 = getelementptr inbounds %"class.zmq::zmtp_engine_t", ptr %this1, i32 0, i32 10
  %20 = load i32, ptr %_heartbeat_timeout32, align 8
  %cmp33 = icmp eq i32 %20, -1
  br i1 %cmp33, label %if.then34, label %if.end38

if.then34:                                        ; preds = %if.then29
  %_options35 = getelementptr inbounds %"class.zmq::stream_engine_base_t", ptr %this1, i32 0, i32 2
  %heartbeat_interval36 = getelementptr inbounds %"struct.zmq::options_t", ptr %_options35, i32 0, i32 60
  %21 = load i32, ptr %heartbeat_interval36, align 4
  %_heartbeat_timeout37 = getelementptr inbounds %"class.zmq::zmtp_engine_t", ptr %this1, i32 0, i32 10
  store i32 %21, ptr %_heartbeat_timeout37, align 8
  br label %if.end38

if.end38:                                         ; preds = %if.then34, %if.then29
  br label %if.end39

if.end39:                                         ; preds = %if.end38, %do.end27
  ret void

eh.resume:                                        ; preds = %lpad
  %exn = load ptr, ptr %exn.slot, align 8
  %sel = load i32, ptr %ehselector.slot, align 4
  %lpad.val = insertvalue { ptr, i32 } poison, ptr %exn, 0
  %lpad.val40 = insertvalue { ptr, i32 } %lpad.val, i32 %sel, 1
  resume { ptr, i32 } %lpad.val40
}