; Function Attrs: mustprogress uwtable
define void @_ZN3zmq13zmtp_engine_tC2EiRKNS_9options_tERKNS_19endpoint_uri_pair_tE(ptr noundef nonnull align 8 dereferenceable(1976) %this, i32 noundef %fd_, ptr noundef nonnull align 8 dereferenceable(1336) %options_, ptr noundef nonnull align 8 dereferenceable(68) %endpoint_uri_pair_) unnamed_addr #0 align 2 personality ptr @__gxx_personality_v0 {
entry:
  tail call void @_ZN3zmq20stream_engine_base_tC2EiRKNS_9options_tERKNS_19endpoint_uri_pair_tEb(ptr noundef nonnull align 8 dereferenceable(1689) %this, i32 noundef %fd_, ptr noundef nonnull align 8 dereferenceable(1336) %options_, ptr noundef nonnull align 8 dereferenceable(68) %endpoint_uri_pair_, i1 noundef zeroext true)
  store ptr getelementptr inbounds ({ [24 x ptr], [11 x ptr] }, ptr @_ZTVN3zmq13zmtp_engine_tE, i64 0, i32 0, i64 2), ptr %this, align 8
  %add.ptr = getelementptr inbounds i8, ptr %this, i64 16
  store ptr getelementptr inbounds ({ [24 x ptr], [11 x ptr] }, ptr @_ZTVN3zmq13zmtp_engine_tE, i64 0, i32 1, i64 2), ptr %add.ptr, align 8
  %_greeting_size = getelementptr inbounds i8, ptr %this, i64 1824
  store i64 12, ptr %_greeting_size, align 8
  %_greeting_bytes_read = getelementptr inbounds i8, ptr %this, i64 1960
  store i32 0, ptr %_greeting_bytes_read, align 8
  %_subscription_required = getelementptr inbounds i8, ptr %this, i64 1964
  store i8 0, ptr %_subscription_required, align 4
  %_heartbeat_timeout = getelementptr inbounds i8, ptr %this, i64 1968
  store i32 0, ptr %_heartbeat_timeout, align 8
  %_next_msg = getelementptr inbounds i8, ptr %this, i64 1416
  store i64 ptrtoint (ptr @_ZN3zmq13zmtp_engine_t14routing_id_msgEPNS_5msg_tE to i64), ptr %_next_msg, align 8
  %_next_msg.repack4 = getelementptr inbounds i8, ptr %this, i64 1424
  store i64 0, ptr %_next_msg.repack4, align 8
  %_process_msg = getelementptr inbounds i8, ptr %this, i64 1432
  store i64 ptrtoint (ptr @_ZN3zmq13zmtp_engine_t22process_routing_id_msgEPNS_5msg_tE to i64), ptr %_process_msg, align 8
  %_process_msg.repack5 = getelementptr inbounds i8, ptr %this, i64 1440
  store i64 0, ptr %_process_msg.repack5, align 8
  %_pong_msg2 = getelementptr inbounds i8, ptr %this, i64 1760
  %call = invoke noundef i32 @_ZN3zmq5msg_t4initEv(ptr noundef nonnull align 8 dereferenceable(64) %_pong_msg2)
          to label %invoke.cont unwind label %lpad

invoke.cont:                                      ; preds = %entry
  %cmp.not = icmp eq i32 %call, 0
  br i1 %cmp.not, label %do.end, label %if.then

if.then:                                          ; preds = %invoke.cont
  %call3 = tail call ptr @__errno_location() #16
  %0 = load i32, ptr %call3, align 4
  %call4 = tail call ptr @strerror(i32 noundef %0) #17
  %1 = load ptr, ptr @stderr, align 8
  %call6 = tail call i32 (ptr, ptr, ...) @fprintf(ptr noundef %1, ptr noundef nonnull @.str, ptr noundef %call4, ptr noundef nonnull @.str.1, i32 noundef 55) #18
  %2 = load ptr, ptr @stderr, align 8
  %call8 = tail call i32 @fflush(ptr noundef %2)
  invoke void @_ZN3zmq9zmq_abortEPKc(ptr noundef %call4)
          to label %do.end unwind label %lpad

lpad:                                             ; preds = %if.then16, %do.end, %if.then, %entry
  %3 = landingpad { ptr, i32 }
          cleanup
  tail call void @_ZN3zmq20stream_engine_base_tD2Ev(ptr noundef nonnull align 8 dereferenceable(1689) %this) #17
  resume { ptr, i32 } %3

do.end:                                           ; preds = %if.then, %invoke.cont
  %_routing_id_msg10 = getelementptr inbounds i8, ptr %this, i64 1696
  %call12 = invoke noundef i32 @_ZN3zmq5msg_t4initEv(ptr noundef nonnull align 8 dereferenceable(64) %_routing_id_msg10)
          to label %invoke.cont11 unwind label %lpad

invoke.cont11:                                    ; preds = %do.end
  %cmp14.not = icmp eq i32 %call12, 0
  br i1 %cmp14.not, label %do.end27, label %if.then16

if.then16:                                        ; preds = %invoke.cont11
  %call18 = tail call ptr @__errno_location() #16
  %4 = load i32, ptr %call18, align 4
  %call19 = tail call ptr @strerror(i32 noundef %4) #17
  %5 = load ptr, ptr @stderr, align 8
  %call21 = tail call i32 (ptr, ptr, ...) @fprintf(ptr noundef %5, ptr noundef nonnull @.str, ptr noundef %call19, ptr noundef nonnull @.str.1, i32 noundef 58) #18
  %6 = load ptr, ptr @stderr, align 8
  %call23 = tail call i32 @fflush(ptr noundef %6)
  invoke void @_ZN3zmq9zmq_abortEPKc(ptr noundef %call19)
          to label %do.end27 unwind label %lpad

do.end27:                                         ; preds = %if.then16, %invoke.cont11
  %heartbeat_interval = getelementptr inbounds i8, ptr %this, i64 972
  %7 = load i32, ptr %heartbeat_interval, align 4
  %cmp28 = icmp sgt i32 %7, 0
  br i1 %cmp28, label %if.then29, label %if.end39

if.then29:                                        ; preds = %do.end27
  %heartbeat_timeout = getelementptr inbounds i8, ptr %this, i64 976
  %8 = load i32, ptr %heartbeat_timeout, align 8
  %cmp33 = icmp eq i32 %8, -1
  %spec.store.select = select i1 %cmp33, i32 %7, i32 %8
  store i32 %spec.store.select, ptr %_heartbeat_timeout, align 8
  br label %if.end39

if.end39:                                         ; preds = %if.then29, %do.end27
  ret void
}